target datalayout = "e-m:e-p270:32:32-p271:32:32-p272:64:64-i64:64-i128:128-f80:128-n8:16:32:64-S128"
target triple = "x86_64-pc-linux-gnu"

; Function Attrs: nounwind uwtable
define i32 @Dch_ObjCheckSuppRed(ptr noundef %0, ptr noundef %1, ptr noundef %2) #0 {
  %4 = alloca i32, align 4
  %5 = alloca ptr, align 8
  %6 = alloca ptr, align 8
  %7 = alloca ptr, align 8
  store ptr %0, ptr %5, align 8
  store ptr %1, ptr %6, align 8
  store ptr %2, ptr %7, align 8
  %8 = load ptr, ptr %5, align 8
  call void @Aig_ManIncrementTravId(ptr noundef %8)
  %9 = load ptr, ptr %5, align 8
  %10 = load ptr, ptr %7, align 8
  %11 = call i32 @Dch_ObjMarkTfi_rec(ptr noundef %9, ptr noundef %10)
  %12 = load ptr, ptr %5, align 8
  call void @Aig_ManIncrementTravId(ptr noundef %12)
  %13 = load ptr, ptr %5, align 8
  %14 = load ptr, ptr %6, align 8
  %15 = call i32 @Dch_ObjMarkTfi_rec(ptr noundef %13, ptr noundef %14)
  %16 = icmp ne i32 %15, 0
  br i1 %16, label %17, label %18

17:                                               ; preds = %3
  store i32 1, ptr %4, align 4
  br label %26

18:                                               ; preds = %3
  %19 = load ptr, ptr %5, align 8
  call void @Aig_ManIncrementTravId(ptr noundef %19)
  %20 = load ptr, ptr %5, align 8
  %21 = load ptr, ptr %7, align 8
  %22 = call i32 @Dch_ObjMarkTfi_rec(ptr noundef %20, ptr noundef %21)
  %23 = icmp ne i32 %22, 0
  br i1 %23, label %24, label %25

24:                                               ; preds = %18
  store i32 1, ptr %4, align 4
  br label %26

25:                                               ; preds = %18
  store i32 0, ptr %4, align 4
  br label %26

26:                                               ; preds = %25, %24, %17
  %27 = load i32, ptr %4, align 4
  ret i32 %27
}