; Function Attrs: nounwind uwtable
define range(i32 0, 2) i32 @Dch_ObjCheckSuppRed(ptr noundef %0, ptr noundef %1, ptr noundef %2) local_unnamed_addr #1 {
  tail call void @Aig_ManIncrementTravId(ptr noundef %0) #11
  %4 = tail call i32 @Dch_ObjMarkTfi_rec(ptr noundef %0, ptr noundef %2)
  tail call void @Aig_ManIncrementTravId(ptr noundef %0) #11
  %5 = tail call i32 @Dch_ObjMarkTfi_rec(ptr noundef %0, ptr noundef %1)
  %.not = icmp eq i32 %5, 0
  br i1 %.not, label %6, label %8

6:                                                ; preds = %3
  tail call void @Aig_ManIncrementTravId(ptr noundef %0) #11
  %7 = tail call i32 @Dch_ObjMarkTfi_rec(ptr noundef %0, ptr noundef %2)
  br label %8

8:                                                ; preds = %6, %3
  %.0 = phi i32 [ 1, %3 ], [ %7, %6 ]
  ret i32 %.0
}